; ModuleID = '40/873.c'
source_filename = "40/873.c"
target datalayout = "e-m:e-p270:32:32-p271:32:32-p272:64:64-i64:64-f80:128-n8:16:32:64-S128"
target triple = "x86_64-pc-linux-gnu"

@.str = private unnamed_addr constant [21 x i8] c"%lf\0A%lf\0A%lf\0A%lf\0A%lf\0A\00", align 1
@.str.1 = private unnamed_addr constant [14 x i8] c"Invalid input\00", align 1
@.str.2 = private unnamed_addr constant [6 x i8] c"%.4lf\00", align 1

; Function Attrs: noinline nounwind uwtable
define dso_local i32 @main() #0 {
  %1 = alloca i32, align 4
  %2 = alloca double, align 8
  %3 = alloca double, align 8
  %4 = alloca double, align 8
  %5 = alloca double, align 8
  %6 = alloca double, align 8
  %7 = alloca double, align 8
  %8 = alloca double, align 8
  store i32 0, i32* %1, align 4
  %9 = call i32 (i8*, ...) @__isoc99_scanf(i8* getelementptr inbounds ([21 x i8], [21 x i8]* @.str, i64 0, i64 0), double* %2, double* %3, double* %4, double* %5, double* %6)
  %10 = load double, double* %6, align 8
  %11 = fcmp ole double 0.000000e+00, %10
  br i1 %11, label %12, label %98

12:                                               ; preds = %0
  %13 = load double, double* %6, align 8
  %14 = fcmp ole double %13, 3.600000e+02
  br i1 %14, label %15, label %98

15:                                               ; preds = %12
  %16 = load double, double* %2, align 8
  %17 = load double, double* %3, align 8
  %18 = fadd double %16, %17
  %19 = load double, double* %4, align 8
  %20 = fadd double %18, %19
  %21 = load double, double* %5, align 8
  %22 = fadd double %20, %21
  %23 = fdiv double %22, 2.000000e+00
  store double %23, double* %7, align 8
  %24 = load double, double* %7, align 8
  %25 = load double, double* %2, align 8
  %26 = fsub double %24, %25
  %27 = load double, double* %7, align 8
  %28 = load double, double* %3, align 8
  %29 = fsub double %27, %28
  %30 = fmul double %26, %29
  %31 = load double, double* %7, align 8
  %32 = load double, double* %4, align 8
  %33 = fsub double %31, %32
  %34 = fmul double %30, %33
  %35 = load double, double* %7, align 8
  %36 = load double, double* %5, align 8
  %37 = fsub double %35, %36
  %38 = fmul double %34, %37
  %39 = load double, double* %2, align 8
  %40 = load double, double* %3, align 8
  %41 = fmul double %39, %40
  %42 = load double, double* %4, align 8
  %43 = fmul double %41, %42
  %44 = load double, double* %5, align 8
  %45 = fmul double %43, %44
  %46 = load double, double* %6, align 8
  %47 = fmul double %46, 1.000000e+02
  %48 = fdiv double %47, 3.600000e+02
  %49 = call double @cos(double %48) #3
  %50 = fmul double %45, %49
  %51 = load double, double* %6, align 8
  %52 = fmul double %51, 1.000000e+02
  %53 = fdiv double %52, 3.600000e+02
  %54 = call double @cos(double %53) #3
  %55 = fmul double %50, %54
  %56 = fsub double %38, %55
  %57 = call double @sqrt(double %56) #3
  store double %57, double* %8, align 8
  %58 = load double, double* %7, align 8
  %59 = load double, double* %2, align 8
  %60 = fsub double %58, %59
  %61 = load double, double* %7, align 8
  %62 = load double, double* %3, align 8
  %63 = fsub double %61, %62
  %64 = fmul double %60, %63
  %65 = load double, double* %7, align 8
  %66 = load double, double* %4, align 8
  %67 = fsub double %65, %66
  %68 = fmul double %64, %67
  %69 = load double, double* %7, align 8
  %70 = load double, double* %5, align 8
  %71 = fsub double %69, %70
  %72 = fmul double %68, %71
  %73 = load double, double* %2, align 8
  %74 = load double, double* %3, align 8
  %75 = fmul double %73, %74
  %76 = load double, double* %4, align 8
  %77 = fmul double %75, %76
  %78 = load double, double* %5, align 8
  %79 = fmul double %77, %78
  %80 = load double, double* %6, align 8
  %81 = fmul double %80, 1.000000e+02
  %82 = fdiv double %81, 3.600000e+02
  %83 = call double @cos(double %82) #3
  %84 = fmul double %79, %83
  %85 = load double, double* %6, align 8
  %86 = fmul double %85, 1.000000e+02
  %87 = fdiv double %86, 3.600000e+02
  %88 = call double @cos(double %87) #3
  %89 = fmul double %84, %88
  %90 = fsub double %72, %89
  %91 = fcmp olt double %90, 0.000000e+00
  br i1 %91, label %92, label %94

92:                                               ; preds = %15
  %93 = call i32 (i8*, ...) @printf(i8* getelementptr inbounds ([14 x i8], [14 x i8]* @.str.1, i64 0, i64 0))
  br label %97

94:                                               ; preds = %15
  %95 = load double, double* %8, align 8
  %96 = call i32 (i8*, ...) @printf(i8* getelementptr inbounds ([6 x i8], [6 x i8]* @.str.2, i64 0, i64 0), double %95)
  br label %97

97:                                               ; preds = %94, %92
  br label %98

98:                                               ; preds = %97, %12, %0
  ret i32 0
}

declare dso_local i32 @__isoc99_scanf(i8*, ...) #1

; Function Attrs: nounwind
declare dso_local double @sqrt(double) #2

; Function Attrs: nounwind
declare dso_local double @cos(double) #2

declare dso_local i32 @printf(i8*, ...) #1


!llvm.module.flags = !{!0}
!llvm.ident = !{!1}

!0 = !{i32 1, !"wchar_size", i32 4}
!1 = !{!"clang version 10.0.0-4ubuntu1 "}
